target datalayout = "e-m:e-p270:32:32-p271:32:32-p272:64:64-i64:64-i128:128-f80:128-n8:16:32:64-S128"
target triple = "x86_64-pc-linux-gnu"

%struct.quic_lcidm_st = type { ptr, ptr, ptr, i64 }
%struct.quic_lcid_st = type { %struct.quic_conn_id_st, i64, ptr, i8 }
%struct.quic_conn_id_st = type { i8, [20 x i8] }
%struct.quic_lcidm_conn_st = type { i64, ptr, ptr, ptr, i64, i8 }
%struct.retire_args = type { ptr, i64, i64 }

@.str = private unnamed_addr constant [33 x i8] c"../openssl/ssl/quic/quic_lcidm.c\00", align 1

; Function Attrs: inlinehint nounwind uwtable
define internal ptr @lh_QUIC_LCID_delete(ptr noundef %0, ptr noundef %1) #3 {
  %3 = alloca ptr, align 8
  %4 = alloca ptr, align 8
  store ptr %0, ptr %3, align 8, !tbaa !30
  store ptr %1, ptr %4, align 8, !tbaa !20
  %5 = load ptr, ptr %3, align 8, !tbaa !30
  %6 = load ptr, ptr %4, align 8, !tbaa !20
  %7 = call ptr @OPENSSL_LH_delete(ptr noundef %5, ptr noundef %6)
  ret ptr %7
}

; Function Attrs: nounwind uwtable
define internal void @lcidm_delete_conn_lcid(ptr noundef %0, ptr noundef %1) #0 {
  %3 = alloca ptr, align 8
  %4 = alloca ptr, align 8
  store ptr %0, ptr %3, align 8, !tbaa !10
  store ptr %1, ptr %4, align 8, !tbaa !20
  %5 = load ptr, ptr %3, align 8, !tbaa !10
  %6 = getelementptr inbounds nuw %struct.quic_lcidm_st, ptr %5, i32 0, i32 1
  %7 = load ptr, ptr %6, align 8, !tbaa !12
  %8 = load ptr, ptr %4, align 8, !tbaa !20
  %9 = call ptr @lh_QUIC_LCID_delete(ptr noundef %7, ptr noundef %8)
  %10 = load ptr, ptr %4, align 8, !tbaa !20
  %11 = getelementptr inbounds nuw %struct.quic_lcid_st, ptr %10, i32 0, i32 2
  %12 = load ptr, ptr %11, align 8, !tbaa !41
  %13 = getelementptr inbounds nuw %struct.quic_lcidm_conn_st, ptr %12, i32 0, i32 1
  %14 = load ptr, ptr %13, align 8, !tbaa !40
  %15 = load ptr, ptr %4, align 8, !tbaa !20
  %16 = call ptr @lh_QUIC_LCID_delete(ptr noundef %14, ptr noundef %15)
  %17 = load ptr, ptr %4, align 8, !tbaa !20
  %18 = getelementptr inbounds nuw %struct.quic_lcid_st, ptr %17, i32 0, i32 2
  %19 = load ptr, ptr %18, align 8, !tbaa !41
  %20 = getelementptr inbounds nuw %struct.quic_lcidm_conn_st, ptr %19, i32 0, i32 0
  %21 = load i64, ptr %20, align 8, !tbaa !32
  %22 = add i64 %21, -1
  store i64 %22, ptr %20, align 8, !tbaa !32
  %23 = load ptr, ptr %4, align 8, !tbaa !20
  call void @CRYPTO_free(ptr noundef %23, ptr noundef @.str, i32 noundef 221)
  ret void
}

; Function Attrs: inlinehint nounwind uwtable
define internal i32 @ossl_quic_conn_id_eq(ptr noundef %0, ptr noundef %1) #3 {
  %3 = alloca i32, align 4
  %4 = alloca ptr, align 8
  %5 = alloca ptr, align 8
  store ptr %0, ptr %4, align 8, !tbaa !33
  store ptr %1, ptr %5, align 8, !tbaa !33
  %6 = load ptr, ptr %4, align 8, !tbaa !33
  %7 = getelementptr inbounds nuw %struct.quic_conn_id_st, ptr %6, i32 0, i32 0
  %8 = load i8, ptr %7, align 1, !tbaa !35
  %9 = zext i8 %8 to i32
  %10 = load ptr, ptr %5, align 8, !tbaa !33
  %11 = getelementptr inbounds nuw %struct.quic_conn_id_st, ptr %10, i32 0, i32 0
  %12 = load i8, ptr %11, align 1, !tbaa !35
  %13 = zext i8 %12 to i32
  %14 = icmp ne i32 %9, %13
  br i1 %14, label %21, label %15

15:                                               ; preds = %2
  %16 = load ptr, ptr %4, align 8, !tbaa !33
  %17 = getelementptr inbounds nuw %struct.quic_conn_id_st, ptr %16, i32 0, i32 0
  %18 = load i8, ptr %17, align 1, !tbaa !35
  %19 = zext i8 %18 to i32
  %20 = icmp sgt i32 %19, 20
  br i1 %20, label %21, label %22

21:                                               ; preds = %15, %2
  store i32 0, ptr %3, align 4
  br label %36

22:                                               ; preds = %15
  %23 = load ptr, ptr %4, align 8, !tbaa !33
  %24 = getelementptr inbounds nuw %struct.quic_conn_id_st, ptr %23, i32 0, i32 1
  %25 = getelementptr inbounds [20 x i8], ptr %24, i64 0, i64 0
  %26 = load ptr, ptr %5, align 8, !tbaa !33
  %27 = getelementptr inbounds nuw %struct.quic_conn_id_st, ptr %26, i32 0, i32 1
  %28 = getelementptr inbounds [20 x i8], ptr %27, i64 0, i64 0
  %29 = load ptr, ptr %4, align 8, !tbaa !33
  %30 = getelementptr inbounds nuw %struct.quic_conn_id_st, ptr %29, i32 0, i32 0
  %31 = load i8, ptr %30, align 1, !tbaa !35
  %32 = zext i8 %31 to i64
  %33 = call i32 @memcmp(ptr noundef %25, ptr noundef %28, i64 noundef %32) #8
  %34 = icmp eq i32 %33, 0
  %35 = zext i1 %34 to i32
  store i32 %35, ptr %3, align 4
  br label %36

36:                                               ; preds = %22, %21
  %37 = load i32, ptr %3, align 4
  ret i32 %37
}

; Function Attrs: inlinehint nounwind uwtable
define internal void @lh_QUIC_LCID_doall_arg(ptr noundef %0, ptr noundef %1, ptr noundef %2) #3 {
  %4 = alloca ptr, align 8
  %5 = alloca ptr, align 8
  %6 = alloca ptr, align 8
  store ptr %0, ptr %4, align 8, !tbaa !30
  store ptr %1, ptr %5, align 8, !tbaa !19
  store ptr %2, ptr %6, align 8, !tbaa !19
  %7 = load ptr, ptr %4, align 8, !tbaa !30
  %8 = load ptr, ptr %5, align 8, !tbaa !19
  %9 = load ptr, ptr %6, align 8, !tbaa !19
  call void @OPENSSL_LH_doall_arg(ptr noundef %7, ptr noundef %8, ptr noundef %9)
  ret void
}

; Function Attrs: inlinehint nounwind uwtable
define internal ptr @lh_QUIC_LCIDM_CONN_retrieve(ptr noundef %0, ptr noundef %1) #3 {
  %3 = alloca ptr, align 8
  %4 = alloca ptr, align 8
  store ptr %0, ptr %3, align 8, !tbaa !31
  store ptr %1, ptr %4, align 8, !tbaa !27
  %5 = load ptr, ptr %3, align 8, !tbaa !31
  %6 = load ptr, ptr %4, align 8, !tbaa !27
  %7 = call ptr @OPENSSL_LH_retrieve(ptr noundef %5, ptr noundef %6)
  ret ptr %7
}

; Function Attrs: nounwind uwtable
define i32 @ossl_quic_lcidm_retire(ptr noundef %0, ptr noundef %1, i64 noundef %2, ptr noundef %3, ptr noundef %4, ptr noundef %5, ptr noundef %6) #0 {
  %8 = alloca i32, align 4
  %9 = alloca ptr, align 8
  %10 = alloca ptr, align 8
  %11 = alloca i64, align 8
  %12 = alloca ptr, align 8
  %13 = alloca ptr, align 8
  %14 = alloca ptr, align 8
  %15 = alloca ptr, align 8
  %16 = alloca %struct.quic_lcidm_conn_st, align 8
  %17 = alloca ptr, align 8
  %18 = alloca %struct.retire_args, align 8
  %19 = alloca i32, align 4
  store ptr %0, ptr %9, align 8, !tbaa !10
  store ptr %1, ptr %10, align 8, !tbaa !19
  store i64 %2, ptr %11, align 8, !tbaa !8
  store ptr %3, ptr %12, align 8, !tbaa !33
  store ptr %4, ptr %13, align 8, !tbaa !33
  store ptr %5, ptr %14, align 8, !tbaa !43
  store ptr %6, ptr %15, align 8, !tbaa !54
  call void @llvm.lifetime.start.p0(i64 48, ptr %16) #7
  call void @llvm.lifetime.start.p0(i64 8, ptr %17) #7
  call void @llvm.lifetime.start.p0(i64 24, ptr %18) #7
  call void @llvm.memset.p0.i64(ptr align 8 %18, i8 0, i64 24, i1 false)
  %20 = load ptr, ptr %10, align 8, !tbaa !19
  %21 = getelementptr inbounds nuw %struct.quic_lcidm_conn_st, ptr %16, i32 0, i32 2
  store ptr %20, ptr %21, align 8, !tbaa !28
  %22 = load ptr, ptr %15, align 8, !tbaa !54
  %23 = icmp eq ptr %22, null
  br i1 %23, label %24, label %25

24:                                               ; preds = %7
  store i32 0, ptr %8, align 4
  store i32 1, ptr %19, align 4
  br label %77

25:                                               ; preds = %7
  %26 = load ptr, ptr %15, align 8, !tbaa !54
  store i32 0, ptr %26, align 4, !tbaa !42
  %27 = load ptr, ptr %9, align 8, !tbaa !10
  %28 = getelementptr inbounds nuw %struct.quic_lcidm_st, ptr %27, i32 0, i32 2
  %29 = load ptr, ptr %28, align 8, !tbaa !16
  %30 = call ptr @lh_QUIC_LCIDM_CONN_retrieve(ptr noundef %29, ptr noundef %16)
  store ptr %30, ptr %17, align 8, !tbaa !27
  %31 = icmp eq ptr %30, null
  br i1 %31, label %32, label %33

32:                                               ; preds = %25
  store i32 1, ptr %8, align 4
  store i32 1, ptr %19, align 4
  br label %77

33:                                               ; preds = %25
  %34 = load i64, ptr %11, align 8, !tbaa !8
  %35 = getelementptr inbounds nuw %struct.retire_args, ptr %18, i32 0, i32 2
  store i64 %34, ptr %35, align 8, !tbaa !56
  %36 = getelementptr inbounds nuw %struct.retire_args, ptr %18, i32 0, i32 1
  store i64 -1, ptr %36, align 8, !tbaa !58
  %37 = load ptr, ptr %17, align 8, !tbaa !27
  %38 = getelementptr inbounds nuw %struct.quic_lcidm_conn_st, ptr %37, i32 0, i32 1
  %39 = load ptr, ptr %38, align 8, !tbaa !40
  call void @lh_QUIC_LCID_doall_arg(ptr noundef %39, ptr noundef @retire_for_conn, ptr noundef %18)
  %40 = getelementptr inbounds nuw %struct.retire_args, ptr %18, i32 0, i32 0
  %41 = load ptr, ptr %40, align 8, !tbaa !59
  %42 = icmp eq ptr %41, null
  br i1 %42, label %43, label %44

43:                                               ; preds = %33
  store i32 1, ptr %8, align 4
  store i32 1, ptr %19, align 4
  br label %77

44:                                               ; preds = %33
  %45 = load ptr, ptr %12, align 8, !tbaa !33
  %46 = icmp ne ptr %45, null
  br i1 %46, label %47, label %55

47:                                               ; preds = %44
  %48 = getelementptr inbounds nuw %struct.retire_args, ptr %18, i32 0, i32 0
  %49 = load ptr, ptr %48, align 8, !tbaa !59
  %50 = getelementptr inbounds nuw %struct.quic_lcid_st, ptr %49, i32 0, i32 0
  %51 = load ptr, ptr %12, align 8, !tbaa !33
  %52 = call i32 @ossl_quic_conn_id_eq(ptr noundef %50, ptr noundef %51)
  %53 = icmp ne i32 %52, 0
  br i1 %53, label %54, label %55

54:                                               ; preds = %47
  store i32 0, ptr %8, align 4
  store i32 1, ptr %19, align 4
  br label %77

55:                                               ; preds = %47, %44
  %56 = load ptr, ptr %15, align 8, !tbaa !54
  store i32 1, ptr %56, align 4, !tbaa !42
  %57 = load ptr, ptr %13, align 8, !tbaa !33
  %58 = icmp ne ptr %57, null
  br i1 %58, label %59, label %64

59:                                               ; preds = %55
  %60 = load ptr, ptr %13, align 8, !tbaa !33
  %61 = getelementptr inbounds nuw %struct.retire_args, ptr %18, i32 0, i32 0
  %62 = load ptr, ptr %61, align 8, !tbaa !59
  %63 = getelementptr inbounds nuw %struct.quic_lcid_st, ptr %62, i32 0, i32 0
  call void @llvm.memcpy.p0.p0.i64(ptr align 1 %60, ptr align 8 %63, i64 21, i1 false), !tbaa.struct !36
  br label %64

64:                                               ; preds = %59, %55
  %65 = load ptr, ptr %14, align 8, !tbaa !43
  %66 = icmp ne ptr %65, null
  br i1 %66, label %67, label %73

67:                                               ; preds = %64
  %68 = getelementptr inbounds nuw %struct.retire_args, ptr %18, i32 0, i32 0
  %69 = load ptr, ptr %68, align 8, !tbaa !59
  %70 = getelementptr inbounds nuw %struct.quic_lcid_st, ptr %69, i32 0, i32 1
  %71 = load i64, ptr %70, align 8, !tbaa !38
  %72 = load ptr, ptr %14, align 8, !tbaa !43
  store i64 %71, ptr %72, align 8, !tbaa !8
  br label %73

73:                                               ; preds = %67, %64
  %74 = load ptr, ptr %9, align 8, !tbaa !10
  %75 = getelementptr inbounds nuw %struct.retire_args, ptr %18, i32 0, i32 0
  %76 = load ptr, ptr %75, align 8, !tbaa !59
  call void @lcidm_delete_conn_lcid(ptr noundef %74, ptr noundef %76)
  store i32 1, ptr %8, align 4
  store i32 1, ptr %19, align 4
  br label %77

77:                                               ; preds = %73, %54, %43, %32, %24
  call void @llvm.lifetime.end.p0(i64 24, ptr %18) #7
  call void @llvm.lifetime.end.p0(i64 8, ptr %17) #7
  call void @llvm.lifetime.end.p0(i64 48, ptr %16) #7
  %78 = load i32, ptr %8, align 4
  ret i32 %78
}