; Function Attrs: nounwind uwtable
define range(i32 0, 2) i32 @ossl_quic_lcidm_retire(ptr noundef readonly captures(none) %0, ptr noundef %1, i64 noundef %2, ptr noundef readonly captures(address_is_null) %3, ptr noundef writeonly captures(address_is_null) %4, ptr noundef writeonly captures(address_is_null) %5, ptr noundef writeonly captures(address_is_null) %6) local_unnamed_addr #0 {
  %8 = alloca %struct.quic_lcidm_conn_st, align 8
  %9 = alloca %struct.retire_args, align 8
  call void @llvm.lifetime.start.p0(i64 48, ptr nonnull %8) #11
  call void @llvm.lifetime.start.p0(i64 24, ptr nonnull %9) #11
  store i64 0, ptr %9, align 8
  %10 = getelementptr inbounds nuw i8, ptr %8, i64 16
  store ptr %1, ptr %10, align 8, !tbaa !24
  %11 = icmp eq ptr %6, null
  br i1 %11, label %48, label %12

12:                                               ; preds = %7
  store i32 0, ptr %6, align 4, !tbaa !37
  %13 = getelementptr inbounds nuw i8, ptr %0, i64 16
  %14 = load ptr, ptr %13, align 8, !tbaa !12
  %15 = call ptr @OPENSSL_LH_retrieve(ptr noundef %14, ptr noundef nonnull %8) #11
  %16 = icmp eq ptr %15, null
  br i1 %16, label %48, label %17

17:                                               ; preds = %12
  %18 = getelementptr inbounds nuw i8, ptr %9, i64 16
  store i64 %2, ptr %18, align 8, !tbaa !38
  %19 = getelementptr inbounds nuw i8, ptr %9, i64 8
  store i64 -1, ptr %19, align 8, !tbaa !40
  %20 = getelementptr inbounds nuw i8, ptr %15, i64 8
  %21 = load ptr, ptr %20, align 8, !tbaa !27
  call void @OPENSSL_LH_doall_arg(ptr noundef %21, ptr noundef nonnull @retire_for_conn, ptr noundef nonnull %9) #11
  %22 = load ptr, ptr %9, align 8, !tbaa !41
  %23 = icmp eq ptr %22, null
  br i1 %23, label %48, label %24

24:                                               ; preds = %17
  %.not = icmp eq ptr %3, null
  br i1 %.not, label %ossl_quic_conn_id_eq.exit.thread, label %25

25:                                               ; preds = %24
  %26 = load i8, ptr %22, align 1, !tbaa !23
  %27 = load i8, ptr %3, align 1, !tbaa !23
  %.not.i = icmp ne i8 %26, %27
  %28 = icmp ugt i8 %26, 20
  %or.cond.i = or i1 %28, %.not.i
  br i1 %or.cond.i, label %ossl_quic_conn_id_eq.exit.thread, label %ossl_quic_conn_id_eq.exit

ossl_quic_conn_id_eq.exit:                        ; preds = %25
  %29 = getelementptr inbounds nuw i8, ptr %22, i64 1
  %30 = getelementptr inbounds nuw i8, ptr %3, i64 1
  %31 = zext nneg i8 %26 to i64
  %bcmp.i = call i32 @bcmp(ptr nonnull readonly %29, ptr nonnull readonly %30, i64 %31)
  %.not25 = icmp eq i32 %bcmp.i, 0
  br i1 %.not25, label %48, label %ossl_quic_conn_id_eq.exit.thread

ossl_quic_conn_id_eq.exit.thread:                 ; preds = %25, %ossl_quic_conn_id_eq.exit, %24
  store i32 1, ptr %6, align 4, !tbaa !37
  %.not21 = icmp eq ptr %4, null
  br i1 %.not21, label %33, label %32

32:                                               ; preds = %ossl_quic_conn_id_eq.exit.thread
  call void @llvm.memcpy.p0.p0.i64(ptr noundef nonnull align 1 dereferenceable(21) %4, ptr noundef nonnull align 8 dereferenceable(21) %22, i64 21, i1 false), !tbaa.struct !29
  br label %33

33:                                               ; preds = %32, %ossl_quic_conn_id_eq.exit.thread
  %.not22 = icmp eq ptr %5, null
  br i1 %.not22, label %37, label %34

34:                                               ; preds = %33
  %35 = getelementptr inbounds nuw i8, ptr %22, i64 24
  %36 = load i64, ptr %35, align 8, !tbaa !30
  store i64 %36, ptr %5, align 8, !tbaa !35
  br label %37

37:                                               ; preds = %34, %33
  %38 = getelementptr i8, ptr %0, i64 8
  %.val = load ptr, ptr %38, align 8, !tbaa !3
  %39 = call ptr @OPENSSL_LH_delete(ptr noundef %.val, ptr noundef nonnull %22) #11
  %40 = getelementptr inbounds nuw i8, ptr %22, i64 32
  %41 = load ptr, ptr %40, align 8, !tbaa !32
  %42 = getelementptr inbounds nuw i8, ptr %41, i64 8
  %43 = load ptr, ptr %42, align 8, !tbaa !27
  %44 = call ptr @OPENSSL_LH_delete(ptr noundef %43, ptr noundef nonnull %22) #11
  %45 = load ptr, ptr %40, align 8, !tbaa !32
  %46 = load i64, ptr %45, align 8, !tbaa !28
  %47 = add i64 %46, -1
  store i64 %47, ptr %45, align 8, !tbaa !28
  call void @CRYPTO_free(ptr noundef nonnull %22, ptr noundef nonnull @.str, i32 noundef 221) #11
  br label %48

48:                                               ; preds = %ossl_quic_conn_id_eq.exit, %17, %12, %7, %37
  %.0 = phi i32 [ 1, %37 ], [ 0, %7 ], [ 1, %12 ], [ 1, %17 ], [ 0, %ossl_quic_conn_id_eq.exit ]
  call void @llvm.lifetime.end.p0(i64 24, ptr nonnull %9) #11
  call void @llvm.lifetime.end.p0(i64 48, ptr nonnull %8) #11
  ret i32 %.0
}